target datalayout = "e-m:e-p270:32:32-p271:32:32-p272:64:64-i64:64-i128:128-f80:128-n8:16:32:64-S128"
target triple = "x86_64-unknown-linux-gnu"

%"class.icu_75::UObject" = type { ptr }
%"class.icu_75::SpoofImpl" = type <{ %"class.icu_75::UObject", %"class.icu_75::IcuCApiHelper", i32, ptr, ptr, ptr, i32, [4 x i8] }>
%"class.icu_75::IcuCApiHelper" = type { i32 }

; Function Attrs: mustprogress uwtable
define void @uspoof_setRestrictionLevel_75(ptr noundef %sc, i32 noundef %restrictionLevel) #0 {
entry:
  %sc.addr = alloca ptr, align 8
  %restrictionLevel.addr = alloca i32, align 4
  %status = alloca i32, align 4
  %This = alloca ptr, align 8
  store ptr %sc, ptr %sc.addr, align 8
  store i32 %restrictionLevel, ptr %restrictionLevel.addr, align 4
  store i32 0, ptr %status, align 4
  %0 = load ptr, ptr %sc.addr, align 8
  %call = call noundef ptr @_ZN6icu_759SpoofImpl12validateThisEP13USpoofCheckerR10UErrorCode(ptr noundef %0, ptr noundef nonnull align 4 dereferenceable(4) %status)
  store ptr %call, ptr %This, align 8
  %1 = load ptr, ptr %This, align 8
  %cmp = icmp ne ptr %1, null
  br i1 %cmp, label %if.then, label %if.end

if.then:                                          ; preds = %entry
  %2 = load i32, ptr %restrictionLevel.addr, align 4
  %3 = load ptr, ptr %This, align 8
  %fRestrictionLevel = getelementptr inbounds %"class.icu_75::SpoofImpl", ptr %3, i32 0, i32 6
  store i32 %2, ptr %fRestrictionLevel, align 8
  %4 = load ptr, ptr %This, align 8
  %fChecks = getelementptr inbounds %"class.icu_75::SpoofImpl", ptr %4, i32 0, i32 2
  %5 = load i32, ptr %fChecks, align 4
  %or = or i32 %5, 16
  store i32 %or, ptr %fChecks, align 4
  br label %if.end

if.end:                                           ; preds = %if.then, %entry
  ret void
}