; Function Attrs: mustprogress uwtable
define void @uspoof_setRestrictionLevel_75(ptr noundef %sc, i32 noundef %restrictionLevel) local_unnamed_addr #0 {
entry:
  %status = alloca i32, align 4
  store i32 0, ptr %status, align 4
  %call = call noundef ptr @_ZN6icu_759SpoofImpl12validateThisEP13USpoofCheckerR10UErrorCode(ptr noundef %sc, ptr noundef nonnull align 4 dereferenceable(4) %status)
  %cmp.not = icmp eq ptr %call, null
  br i1 %cmp.not, label %if.end, label %if.then

if.then:                                          ; preds = %entry
  %fRestrictionLevel = getelementptr inbounds i8, ptr %call, i64 40
  store i32 %restrictionLevel, ptr %fRestrictionLevel, align 8
  %fChecks = getelementptr inbounds i8, ptr %call, i64 12
  %0 = load i32, ptr %fChecks, align 4
  %or = or i32 %0, 16
  store i32 %or, ptr %fChecks, align 4
  br label %if.end

if.end:                                           ; preds = %if.then, %entry
  ret void
}